(lp0
(iAudio
Audio
p1
(dp2
S'viewcount'
p3
I1531733344
sS'title'
p4
VEd Sheeran - Thinking Out Loud [Official Video]
p5
sS'dislikes'
p6
I231009
sS'likes'
p7
I5984106
sS'dur'
p8
VPT4M57S
p9
sS'id'
p10
Vlp-EO5I60KA
p11
sba(iAudio
Audio
p12
(dp13
g3
I1273464856
sg4
VThe Chainsmokers - Closer (Lyric) ft. Halsey
p14
sg6
I249271
sg7
I5216342
sg8
VPT4M22S
p15
sg10
VPT2_F-1esPk
p16
sba(iAudio
Audio
p17
(dp18
g3
I836192109
sg4
VShakira - Chantaje (Official video) ft. Maluma
p19
sg6
I238406
sg7
I3293666
sg8
VPT3M20S
p20
sg10
V6Mgqbai3fKo
p21
sba(iAudio
Audio
p22
(dp23
g3
I788564530
sg4
VSia - Cheap Thrills (Lyric Video) ft. Sean Paul
p24
sg6
I121807
sg7
I2926504
sg8
VPT4M22S
p25
sg10
VnYh-n7EOtMA
p26
sba(iAudio
Audio
p27
(dp28
g3
I783717310
sg4
VSia - Elastic Heart feat. Shia LaBeouf & Maddie Ziegler (Official Video)
p29
sg6
I220671
sg7
I2658819
sg8
VPT5M8S
p30
sg10
VKWZGAExj-es
p31
sba(iAudio
Audio
p32
(dp33
g3
I756394688
sg4
VThe Weeknd - Starboy (official) ft. Daft Punk
p34
sg6
I243928
sg7
I3563838
sg8
VPT4M34S
p35
sg10
V34Na4j8AVgA
p36
sba(iAudio
Audio
p37
(dp38
g3
I472489540
sg4
VClean Bandit - Rockabye ft. Sean Paul & Anne-Marie [Official Video]
p39
sg6
I82854
sg7
I2466581
sg8
VPT4M14S
p40
sg10
VpapuvlVeZg8
p41
sba(iAudio
Audio
p42
(dp43
g3
I451786088
sg4
VLuis Fonsi - Despacito ft. Daddy Yankee
p44
sg6
I153122
sg7
I2963249
sg8
VPT4M42S
p45
sg10
VkJQP7kiw5Fk
p46
sba(iAudio
Audio
p47
(dp48
g3
I415020600
sg4
VEd Sheeran - Shape Of You [Official Lyric Video]
p49
sg6
I92221
sg7
I3057083
sg8
VPT3M56S
p50
sg10
V_dK2tDK9grQ
p51
sba(iAudio
Audio
p52
(dp53
g3
I313611688
sg4
VEd Sheeran - Photograph (Official Music Video)
p54
sg6
I45477
sg7
I2208396
sg8
VPT4M35S
p55
sg10
VnSDgHBxUbVQ
p56
sba(iAudio
Audio
p57
(dp58
g3
I247176483
sg4
VSia - Cheap Thrills (Performance Edit)
p59
sg6
I51527
sg7
I1721744
sg8
VPT3M38S
p60
sg10
V31crA53Dgu0
p61
sba(iAudio
Audio
p62
(dp63
g3
I246636358
sg4
VDJ Snake - Let Me Love You ft. Justin Bieber
p64
sg6
I61338
sg7
I1937991
sg8
VPT3M26S
p65
sg10
VeuCqAq6BRa4
p66
sba(iAudio
Audio
p67
(dp68
g3
I207573873
sg4
VAlan Walker - Alone
p69
sg6
I31835
sg7
I1974026
sg8
VPT2M44S
p70
sg10
V1-xGerv5FOk
p71
sba(iAudio
Audio
p72
(dp73
g3
I201643174
sg4
VSia - Big Girls Cry (Official Video)
p74
sg6
I85353
sg7
I956547
sg8
VPT3M37S
p75
sg10
V4NhKWZpkw1Q
p76
sba(iAudio
Audio
p77
(dp78
g3
I179702352
sg4
VRag'n'Bone Man - Human (Official Video)
p79
sg6
I31691
sg7
I1461782
sg8
VPT3M18S
p80
sg10
VL3wKzyIN1yk
p81
sba(iAudio
Audio
p82
(dp83
g3
I165621100
sg4
VZAYN, Taylor Swift - I Don\u2019t Wanna Live Forever (Fifty Shades Darker)
p84
sg6
I85300
sg7
I1708328
sg8
VPT4M17S
p85
sg10
V7F37r50VUTQ
p86
sba(iAudio
Audio
p87
(dp88
g3
I146798487
sg4
VSia - Alive
p89
sg6
I31226
sg7
I752153
sg8
VPT5M1S
p90
sg10
Vt2NgsJrrAyM
p91
sba(iAudio
Audio
p92
(dp93
g3
I103614127
sg4
VLittle Mix - Touch (Official Video)
p94
sg6
I73946
sg7
I957673
sg8
VPT3M38S
p95
sg10
VgBAfejjUQoA
p96
sba(iAudio
Audio
p97
(dp98
g3
I99539204
sg4
VLP - Lost On You [Official Video]
p99
sg6
I16878
sg7
I618499
sg8
VPT4M31S
p100
sg10
Vhn3wJ1_1Zsg
p101
sba(iAudio
Audio
p102
(dp103
g3
I64572065
sg4
VKaty Perry - Chained To The Rhythm (Official) ft. Skip Marley
p104
sg6
I65660
sg7
I1221446
sg8
VPT4M1S
p105
sg10
VUm7pMggPnug
p106
sba(iAudio
Audio
p107
(dp108
g3
I55214966
sg4
VAlok, Bruno Martini feat. Zeeba - Hear Me Now (Official Music Video)
p109
sg6
I8121
sg7
I608271
sg8
VPT4M25S
p110
sg10
VJVpTp8IHdEg
p111
sba(iAudio
Audio
p112
(dp113
g3
I37997808
sg4
VED SHEERAN - Shape Of You | Kyle Hanagami Choreography
p114
sg6
I8704
sg7
I569756
sg8
VPT5M21S
p115
sg10
VKl5B6MBAntI
p116
sba(iAudio
Audio
p117
(dp118
g3
I34451657
sg4
VSia - Freeze You Out (Music Video)
p119
sg6
I4413
sg7
I239104
sg8
VPT4M4S
p120
sg10
VR1VRgX43dHM
p121
sba(iAudio
Audio
p122
(dp123
g3
I28204128
sg4
VSia - The Greatest (Audio) ft. Kendrick Lamar
p124
sg6
I5177
sg7
I219482
sg8
VPT3M33S
p125
sg10
VsG6aWhZnbfw
p126
sba(iAudio
Audio
p127
(dp128
g3
I23239824
sg4
VSia - Move Your Body (Single Mix) [Lyric]
p129
sg6
I6496
sg7
I314060
sg8
VPT4M10S
p130
sg10
V0GoGcVs6pbU
p131
sba(iAudio
Audio
p132
(dp133
g3
I17997417
sg4
VSia - Never Give Up (from the Lion Soundtrack) [Lyric Video]
p134
sg6
I3942
sg7
I191188
sg8
VPT3M43S
p135
sg10
Vh6Ol3eprKiw
p136
sba(iAudio
Audio
p137
(dp138
g3
I12403036
sg4
VSia - Never Give Up (lyrics)
p139
sg6
I1508
sg7
I85961
sg8
VPT3M57S
p140
sg10
Vs43sptuwkvA
p141
sba(iAudio
Audio
p142
(dp143
g3
I12234313
sg4
VSia - Move Your Body (Alan Walker Remix) [Audio]
p144
sg6
I2285
sg7
I126507
sg8
VPT3M40S
p145
sg10
VbZxrIoCPsOc
p146
sba(iAudio
Audio
p147
(dp148
g3
I7190868
sg4
VSia - The Greatest (Lyrics)
p149
sg6
I1462
sg7
I44538
sg8
VPT3M37S
p150
sg10
VJwDO7VUZ8Fc
p151
sba(iAudio
Audio
p152
(dp153
g3
I5935024
sg4
VEd Sheeran - Shape Of You ( cover by J.Fla )
p154
sg6
I2343
sg7
I102287
sg8
VPT2M54S
p155
sg10
VMhQKe-aERsU
p156
sba(iAudio
Audio
p157
(dp158
g3
I3840563
sg4
VWhen "Shape Of You" By Ed Sheeran Comes On | Ranz and Niana
p159
sg6
I2940
sg7
I154853
sg8
VPT1M40S
p160
sg10
VZojR9U9mpRQ
p161
sba(iAudio
Audio
p162
(dp163
g3
I2320856
sg4
VSia - Loved me back to life (Music Video)
p164
sg6
I1066
sg7
I49380
sg8
VPT3M51S
p165
sg10
VDfRQU99RvFg
p166
sba(iAudio
Audio
p167
(dp168
g3
I888776
sg4
VShape of You - Ed Sheeran (Boyce Avenue cover) on Spotify & iTunes
p169
sg6
I831
sg7
I42596
sg8
VPT3M39S
p170
sg10
VJm4B-A_e8Zc
p171
sba(iAudio
Audio
p172
(dp173
g3
I775809
sg4
VEd Sheeran: Shape of You
p174
sg6
I301
sg7
I26903
sg8
VPT4M33S
p175
sg10
VTwb9_SEvhik
p176
sba(iAudio
Audio
p177
(dp178
g3
I348621
sg4
VTHE GREATEST - Sia (House of Halo #WITHOUTMUSIC parody)
p179
sg6
I252
sg7
I9496
sg8
VPT1M40S
p180
sg10
VE6ato47uz2M
p181
sba(iAudio
Audio
p182
(dp183
g3
I341298
sg4
VEd Sheeran - Shape of You (Live on the Honda Stage at the iHeartRadio Theater NY)
p184
sg6
I140
sg7
I38012
sg8
VPT4M37S
p185
sg10
VocPa8w0UHks
p186
sba(iAudio
Audio
p187
(dp188
g3
I9568
sg4
VThe Greatest SIA simple dance routine
p189
sg6
I19
sg7
I109
sg8
VPT3M32S
p190
sg10
VBeiPgE9RQ6c
p191
sba.